Certificate:
    Data:
        Version: 3 (0x2)
        Serial Number:
            41:20:b8:ee:aa:56:dd:f7:49:73:4d:71:d4:90:b4:a1
        Signature Algorithm: sha256WithRSAEncryption
        Issuer: C=XX, O=Some CA, CN=Fake CA for zlint testing
        Validity
            Not Before: Feb  3 10:33:44 2026 GMT
            Not After : Feb  3 10:33:44 2027 GMT
        Subject: C=XX, ST=Some State or Province, L=Somewhere, O=Some Company Ltd., serialNumber=1234567890, businessCategory=Non-Commercial Entity
        Subject Public Key Info:
            Public Key Algorithm: rsaEncryption
                Public-Key: (2048 bit)
                Modulus:
                    00:e4:c5:74:b4:58:1d:4d:33:06:4b:be:21:8a:f2:
                    3d:a8:5c:d7:c7:c6:fe:5d:b2:80:76:9f:c1:94:99:
                    ef:c1:1a:95:e3:2f:ca:3d:34:59:38:59:bb:db:f6:
                    da:13:9b:3f:db:47:96:4b:98:e3:a5:56:6d:86:e9:
                    2c:80:da:60:15:d3:d1:fd:3d:b5:ea:d9:9d:21:fa:
                    d3:0b:80:10:fd:56:82:3a:47:d1:49:a5:a6:5a:13:
                    f6:7e:5b:6c:00:49:53:40:fa:f4:e1:2c:4e:a1:f8:
                    21:6f:73:c4:1f:03:33:d7:45:de:d9:cb:34:69:79:
                    59:20:49:fe:02:05:2b:df:57:b0:82:a2:eb:e6:ea:
                    bd:b9:fb:9a:ba:6c:b9:65:f0:f5:1e:ec:3c:82:d1:
                    ee:da:8c:33:f4:54:49:6d:eb:ab:cf:15:96:2f:3c:
                    31:17:eb:0c:c0:35:10:c8:64:2d:44:d4:11:1b:ed:
                    c2:84:47:b0:a2:68:30:86:f2:55:bc:bd:fc:df:c9:
                    db:80:cf:00:59:3d:4f:00:fc:53:fc:79:1b:ae:b1:
                    42:d9:3c:1d:30:f6:95:66:97:1e:fa:ca:7b:ba:03:
                    e7:ee:3e:4a:de:c0:08:64:74:ad:ba:cf:f1:1c:cc:
                    02:61:76:bc:53:34:bb:d1:25:0c:b7:85:bc:a2:59:
                    62:45
                Exponent: 65537 (0x10001)
        X509v3 extensions:
            X509v3 Key Usage: critical
                Digital Signature, Key Encipherment
            X509v3 Extended Key Usage: 
                TLS Web Client Authentication, TLS Web Server Authentication
            X509v3 Authority Key Identifier: 
                E8:B6:F6:76:4B:D0:3B:E5:46:A5:F9:54:D4:7E:07:B3:DE:0D:60:3E
            Authority Information Access: 
                OCSP - URI:http://ca.someca-inc.com/ocsp
                CA Issuers - URI:http://ca.someca-inc.com/root
            X509v3 Subject Alternative Name: 
                DNS:example.org
            X509v3 Certificate Policies: 
                Policy: 2.23.140.1.1
            X509v3 CRL Distribution Points: 
                Full Name:
                  URI:http://ca.someca-inc.com/crl

    Signature Algorithm: sha256WithRSAEncryption
    Signature Value:
        1e:cc:7c:40:ec:29:94:6b:0b:66:50:32:34:bc:36:b4:a1:1f:
        fb:e4:36:79:4a:d3:b4:3d:a5:5f:74:f3:fc:54:ab:9b:1f:38:
        39:5e:08:22:b4:7f:33:dc:bb:79:e8:63:cd:6e:6f:a8:aa:7a:
        32:a3:88:a5:fd:df:fe:7c:3e:91:6d:2c:9c:8c:74:b2:44:41:
        77:6f:d7:41:3c:0d:04:97:68:b2:5e:66:18:34:00:b7:c3:cf:
        04:f1:ea:8f:17:f7:a7:0b:13:5c:80:1c:50:82:8f:2d:ff:ce:
        df:0c:c8:68:5d:1c:f0:fc:f9:4e:92:62:f8:9f:e0:a9:a7:9b:
        12:18:dd:34:8a:e4:a9:0e:b5:fb:a3:62:e5:dd:4b:40:3c:d0:
        48:0b:9b:ed:83:6b:7e:9c:88:bb:b6:99:45:5c:c8:95:73:f9:
        f8:c1:bd:97:82:60:92:15:e3:8b:6f:82:df:8d:b4:41:f2:60:
        dd:d0:15:fe:72:b2:a2:fb:07:8f:d5:ef:f0:21:cc:bb:54:13:
        2d:41:a5:55:a1:65:73:49:33:75:fc:75:db:40:1b:48:63:02:
        f1:20:da:44:5c:90:37:aa:bb:86:3b:98:ec:ba:c4:ce:15:18:
        12:8a:ed:20:9a:b3:a1:c4:de:f4:84:07:5e:7c:0a:6f:a6:98:
        ed:ba:5d:f9
-----BEGIN CERTIFICATE-----
MIIEeDCCA2CgAwIBAgIQQSC47qpW3fdJc01x1JC0oTANBgkqhkiG9w0BAQsFADBD
MQswCQYDVQQGEwJYWDEQMA4GA1UEChMHU29tZSBDQTEiMCAGA1UEAxMZRmFrZSBD
QSBmb3IgemxpbnQgdGVzdGluZzAeFw0yNjAyMDMxMDMzNDRaFw0yNzAyMDMxMDMz
NDRaMIGTMQswCQYDVQQGEwJYWDEfMB0GA1UECBMWU29tZSBTdGF0ZSBvciBQcm92
aW5jZTESMBAGA1UEBxMJU29tZXdoZXJlMRowGAYDVQQKExFTb21lIENvbXBhbnkg
THRkLjETMBEGA1UEBRMKMTIzNDU2Nzg5MDEeMBwGA1UEDxMVTm9uLUNvbW1lcmNp
YWwgRW50aXR5MIIBIjANBgkqhkiG9w0BAQEFAAOCAQ8AMIIBCgKCAQEA5MV0tFgd
TTMGS74hivI9qFzXx8b+XbKAdp/BlJnvwRqV4y/KPTRZOFm72/baE5s/20eWS5jj
pVZthuksgNpgFdPR/T216tmdIfrTC4AQ/VaCOkfRSaWmWhP2fltsAElTQPr04SxO
ofghb3PEHwMz10Xe2cs0aXlZIEn+AgUr31ewgqLr5uq9ufuaumy5ZfD1Huw8gtHu
2owz9FRJbeurzxWWLzwxF+sMwDUQyGQtRNQRG+3ChEewomgwhvJVvL3838nbgM8A
WT1PAPxT/HkbrrFC2TwdMPaVZpce+sp7ugPn7j5K3sAIZHStus/xHMwCYXa8UzS7
0SUMt4W8olliRQIDAQABo4IBFTCCAREwDgYDVR0PAQH/BAQDAgWgMB0GA1UdJQQW
MBQGCCsGAQUFBwMCBggrBgEFBQcDATAfBgNVHSMEGDAWgBTotvZ2S9A75Ual+VTU
fgez3g1gPjBkBggrBgEFBQcBAQRYMFYwKQYIKwYBBQUHMAGGHWh0dHA6Ly9jYS5z
b21lY2EtaW5jLmNvbS9vY3NwMCkGCCsGAQUFBzAChh1odHRwOi8vY2Euc29tZWNh
LWluYy5jb20vcm9vdDAWBgNVHREEDzANggtleGFtcGxlLm9yZzASBgNVHSAECzAJ
MAcGBWeBDAEBMC0GA1UdHwQmMCQwIqAgoB6GHGh0dHA6Ly9jYS5zb21lY2EtaW5j
LmNvbS9jcmwwDQYJKoZIhvcNAQELBQADggEBAB7MfEDsKZRrC2ZQMjS8NrShH/vk
NnlK07Q9pV908/xUq5sfODleCCK0fzPcu3noY81ub6iqejKjiKX93/58PpFtLJyM
dLJEQXdv10E8DQSXaLJeZhg0ALfDzwTx6o8X96cLE1yAHFCCjy3/zt8MyGhdHPD8
+U6SYvif4KmnmxIY3TSK5KkOtfujYuXdS0A80EgLm+2Da36ciLu2mUVcyJVz+fjB
vZeCYJIV44tvgt+NtEHyYN3QFf5ysqL7B4/V7/AhzLtUEy1BpVWhZXNJM3X8ddtA
G0hjAvEg2kRckDequ4Y7mOy6xM4VGBKK7SCas6HE3vSEB158Cm+mmO26Xfk=
-----END CERTIFICATE-----
