Certificate:
    Data:
        Version: 3 (0x2)
        Serial Number:
            8f:e5:2e:bb:6a:c4:a8:28:2a:fb:72:d6:24:cf:8c:26
        Signature Algorithm: sha256WithRSAEncryption
        Issuer: C=XX, O=Some CA, CN=Fake CA for zlint testing
        Validity
            Not Before: Feb  3 10:36:45 2026 GMT
            Not After : Feb  3 10:36:45 2027 GMT
        Subject: C=XX, ST=Some State or Province, L=Somewhere, O=Some Company Ltd., serialNumber=1234567890, organizationIdentifier=CF:IT-1234567890
        Subject Public Key Info:
            Public Key Algorithm: rsaEncryption
                Public-Key: (2048 bit)
                Modulus:
                    00:c8:6e:df:ad:c4:5a:f3:f0:74:30:a7:8e:d4:fd:
                    ac:af:b5:a0:6f:7c:a4:0f:1f:d3:a6:4c:c7:c4:1d:
                    94:8f:5c:fd:b7:9d:32:dc:3e:5d:b1:80:0e:b3:c4:
                    fc:01:fd:af:e9:07:5b:0d:bb:26:fd:66:b2:b3:31:
                    d0:22:a0:5b:12:30:e9:1d:9b:b8:21:18:33:e6:d8:
                    27:30:df:5f:08:72:d7:8c:9a:2d:63:41:ec:a5:b8:
                    d2:fe:1d:96:c8:50:6a:d4:7b:fa:3b:b9:76:59:67:
                    33:6a:d2:21:b9:33:61:2c:3b:29:86:44:71:51:5a:
                    b5:79:18:55:39:07:7a:a3:1f:04:30:b7:e7:ad:16:
                    eb:5b:f1:7e:09:70:85:56:65:f7:3a:da:2a:60:e9:
                    d0:ea:a4:a2:5c:52:80:3b:f6:20:d1:69:ba:4a:22:
                    63:d2:24:68:71:d3:ad:16:6c:98:e7:20:b3:5e:21:
                    f8:4a:53:2e:79:bf:87:7f:ed:60:3a:ba:a4:16:a1:
                    b6:6f:8c:75:27:51:8b:8f:76:8d:69:98:3f:dc:d1:
                    3c:8d:0b:9e:dd:c4:0e:01:67:39:38:80:22:0b:f1:
                    8b:14:08:57:32:8c:31:0e:66:99:5f:22:50:d7:38:
                    d8:a8:75:e1:12:bd:56:a6:fd:d3:78:28:a6:cb:4b:
                    64:11
                Exponent: 65537 (0x10001)
        X509v3 extensions:
            X509v3 Key Usage: critical
                Non Repudiation
            X509v3 Authority Key Identifier: 
                E8:B6:F6:76:4B:D0:3B:E5:46:A5:F9:54:D4:7E:07:B3:DE:0D:60:3E
            Authority Information Access: 
                OCSP - URI:http://ca.someca-inc.com/ocsp
                CA Issuers - URI:http://ca.someca-inc.com/root
            X509v3 CRL Distribution Points: 
                Full Name:
                  URI:http://ca.someca-inc.com/crl

            qcStatements: 
                0
0......F..
    Signature Algorithm: sha256WithRSAEncryption
    Signature Value:
        c4:97:aa:38:a9:dd:a0:cb:69:96:54:97:70:aa:0f:3b:46:f5:
        7a:9c:51:7b:9b:55:ae:aa:ee:4c:06:f9:73:58:7d:70:47:93:
        be:f1:cc:7c:06:59:6a:04:ac:be:be:cc:46:e5:bc:34:0b:d5:
        07:fa:fb:22:32:22:c7:59:d2:8b:b5:3b:fb:8c:28:6b:a7:2d:
        66:63:ce:2e:82:b3:da:f8:65:f3:1d:69:88:bb:78:9e:e7:6c:
        c4:b1:fa:3d:3e:2e:db:9b:40:63:0c:38:53:93:63:93:ac:4a:
        9a:23:9d:2d:c2:2e:42:73:a0:e1:df:98:e5:9b:a3:41:60:5d:
        01:85:7c:ca:fc:0d:ad:29:9a:7c:18:56:a6:f5:99:48:a2:d1:
        4b:6d:24:92:f2:32:4a:a6:23:3b:c1:b4:d6:49:b9:b6:15:e6:
        00:2c:ad:e8:a0:71:aa:ac:f5:3f:d0:58:19:4f:7b:35:05:67:
        f9:8b:54:dc:cb:15:45:61:c5:03:f9:1f:08:26:00:a6:57:2e:
        68:d6:87:46:01:5f:1f:ce:3f:3a:b6:52:a6:28:42:20:b3:d0:
        8e:b6:ab:b2:6b:de:71:b0:b9:28:47:cc:66:ed:df:a6:95:3b:
        3c:68:43:16:25:68:d4:2d:c2:8e:bd:83:67:e1:e8:41:9c:cc:
        3e:49:c1:06
-----BEGIN CERTIFICATE-----
MIIEQTCCAymgAwIBAgIRAI/lLrtqxKgoKvty1iTPjCYwDQYJKoZIhvcNAQELBQAw
QzELMAkGA1UEBhMCWFgxEDAOBgNVBAoTB1NvbWUgQ0ExIjAgBgNVBAMTGUZha2Ug
Q0EgZm9yIHpsaW50IHRlc3RpbmcwHhcNMjYwMjAzMTAzNjQ1WhcNMjcwMjAzMTAz
NjQ1WjCBjjELMAkGA1UEBhMCWFgxHzAdBgNVBAgTFlNvbWUgU3RhdGUgb3IgUHJv
dmluY2UxEjAQBgNVBAcTCVNvbWV3aGVyZTEaMBgGA1UEChMRU29tZSBDb21wYW55
IEx0ZC4xEzARBgNVBAUTCjEyMzQ1Njc4OTAxGTAXBgNVBGETEENGOklULTEyMzQ1
Njc4OTAwggEiMA0GCSqGSIb3DQEBAQUAA4IBDwAwggEKAoIBAQDIbt+txFrz8HQw
p47U/ayvtaBvfKQPH9OmTMfEHZSPXP23nTLcPl2xgA6zxPwB/a/pB1sNuyb9ZrKz
MdAioFsSMOkdm7ghGDPm2Ccw318IcteMmi1jQeyluNL+HZbIUGrUe/o7uXZZZzNq
0iG5M2EsOymGRHFRWrV5GFU5B3qjHwQwt+etFutb8X4JcIVWZfc62ipg6dDqpKJc
UoA79iDRabpKImPSJGhx060WbJjnILNeIfhKUy55v4d/7WA6uqQWobZvjHUnUYuP
do1pmD/c0TyNC57dxA4BZzk4gCIL8YsUCFcyjDEOZplfIlDXONiodeESvVam/dN4
KKbLS2QRAgMBAAGjgeMwgeAwDgYDVR0PAQH/BAQDAgZAMB8GA1UdIwQYMBaAFOi2
9nZL0DvlRqX5VNR+B7PeDWA+MGQGCCsGAQUFBwEBBFgwVjApBggrBgEFBQcwAYYd
aHR0cDovL2NhLnNvbWVjYS1pbmMuY29tL29jc3AwKQYIKwYBBQUHMAKGHWh0dHA6
Ly9jYS5zb21lY2EtaW5jLmNvbS9yb290MC0GA1UdHwQmMCQwIqAgoB6GHGh0dHA6
Ly9jYS5zb21lY2EtaW5jLmNvbS9jcmwwGAYIKwYBBQUHAQMEDDAKMAgGBgQAjkYB
ATANBgkqhkiG9w0BAQsFAAOCAQEAxJeqOKndoMtpllSXcKoPO0b1epxRe5tVrqru
TAb5c1h9cEeTvvHMfAZZagSsvr7MRuW8NAvVB/r7IjIix1nSi7U7+4woa6ctZmPO
LoKz2vhl8x1piLt4nudsxLH6PT4u25tAYww4U5Njk6xKmiOdLcIuQnOg4d+Y5Zuj
QWBdAYV8yvwNrSmafBhWpvWZSKLRS20kkvIySqYjO8G01km5thXmACyt6KBxqqz1
P9BYGU97NQVn+YtU3MsVRWHFA/kfCCYAplcuaNaHRgFfH84/OrZSpihCILPQjrar
smvecbC5KEfMZu3fppU7PGhDFiVo1C3Cjr2DZ+HoQZzMPknBBg==
-----END CERTIFICATE-----
