Certificate:
    Data:
        Version: 3 (0x2)
        Serial Number:
            2b:44:03:32:7f:fa:11:b5:91:3c:94:28:62:e2:ff:71
        Signature Algorithm: sha256WithRSAEncryption
        Issuer: C=XX, O=Some CA, CN=Fake CA for zlint testing
        Validity
            Not Before: Feb  3 10:38:26 2026 GMT
            Not After : Feb  3 10:38:26 2027 GMT
        Subject: C=XX, ST=Some State or Province, L=Somewhere, O=Some Company Ltd., serialNumber=1234567890, organizationIdentifier=NTRUS+CA-1234567890
        Subject Public Key Info:
            Public Key Algorithm: rsaEncryption
                Public-Key: (2048 bit)
                Modulus:
                    00:c0:7e:bf:bf:1a:f0:52:e1:3e:9d:a7:46:4e:38:
                    5a:12:c9:98:9f:7d:7c:cc:65:a5:0e:90:95:a5:e1:
                    97:71:ac:8b:0d:46:6a:6e:34:ea:d8:b0:93:d4:d2:
                    ac:45:a8:aa:84:a0:8c:86:7a:e8:89:82:9b:ec:28:
                    31:e6:30:d0:2f:aa:30:48:69:7a:e0:9b:91:3a:32:
                    dd:de:c8:db:69:3d:18:78:7d:4f:d0:52:56:a0:ec:
                    86:d0:97:78:87:89:5b:54:17:87:79:bb:12:71:c6:
                    f2:cb:73:a9:5e:9c:6e:f2:97:cf:49:58:22:61:93:
                    d0:dc:7c:bb:db:15:27:65:da:31:06:b9:70:ff:d9:
                    6a:1b:c5:98:0e:09:7d:fe:54:33:15:8e:73:95:d2:
                    6d:ac:83:57:d0:2e:4f:05:f2:e5:0b:72:21:f2:87:
                    86:d7:e5:38:32:7f:7c:6e:f5:6b:f5:d6:38:f4:c7:
                    be:fd:b3:5f:32:ae:5b:a7:7a:f5:05:3f:c5:8a:b8:
                    34:df:c6:04:68:9b:92:26:dc:e7:40:9a:88:6d:53:
                    41:3b:f5:d0:47:b2:ac:14:a7:6a:aa:44:b9:5a:d4:
                    24:aa:e4:5f:0a:a6:67:41:b0:5b:a3:3a:75:a7:eb:
                    a2:1c:69:7e:a8:2b:66:61:02:28:5c:e5:08:db:06:
                    d1:01
                Exponent: 65537 (0x10001)
        X509v3 extensions:
            X509v3 Key Usage: critical
                Digital Signature, Key Encipherment
            X509v3 Extended Key Usage: 
                TLS Web Client Authentication, TLS Web Server Authentication
            X509v3 Authority Key Identifier: 
                E8:B6:F6:76:4B:D0:3B:E5:46:A5:F9:54:D4:7E:07:B3:DE:0D:60:3E
            Authority Information Access: 
                OCSP - URI:http://ca.someca-inc.com/ocsp
                CA Issuers - URI:http://ca.someca-inc.com/root
            X509v3 Subject Alternative Name: 
                DNS:example.org
            X509v3 Certificate Policies: 
                Policy: 2.23.140.1.2.2
            X509v3 CRL Distribution Points: 
                Full Name:
                  URI:http://ca.someca-inc.com/crl

            qcStatements: 
                0.0......F..0......F..
    Signature Algorithm: sha256WithRSAEncryption
    Signature Value:
        8b:e4:1b:67:ce:fd:07:35:38:2f:0c:7b:7f:24:8c:52:1d:8a:
        4d:20:61:5d:f0:93:eb:87:05:8c:26:df:f2:9a:1a:3b:a5:ad:
        68:22:49:a1:56:4a:e9:f0:ee:fd:6d:12:af:fe:b2:1f:21:5d:
        f6:86:98:f9:60:75:ec:ca:5f:94:ae:6e:b6:5a:86:c0:83:2c:
        91:dc:54:d7:9f:e5:dc:c8:13:90:c2:e8:37:01:b3:89:2c:d3:
        a2:b8:92:3a:c9:0c:2e:48:5f:f9:7c:b0:f4:93:e7:98:3c:28:
        82:0f:b0:78:ae:50:8a:d7:45:aa:d6:31:46:b8:5a:45:97:e4:
        ed:df:67:de:50:0b:b0:a5:fa:fe:f3:d7:bc:3c:c9:3e:3a:c3:
        95:1e:7d:fb:f0:b9:46:40:40:6d:71:88:77:ae:c2:2d:db:1b:
        94:3e:96:08:91:fc:72:ab:87:1c:82:d0:9d:ba:41:41:47:87:
        d7:74:77:bf:3b:34:cf:21:02:5c:46:74:4a:2d:b8:95:86:d3:
        12:21:cf:97:24:1a:42:ec:c6:cc:2a:35:d3:5e:17:58:8d:8c:
        3b:49:4a:d3:04:1f:62:fb:27:96:3a:68:db:c2:d4:5a:8c:ff:
        59:1d:34:5b:1b:8b:33:39:37:7c:4e:be:73:84:7a:99:d6:23:
        2e:23:dc:fa
-----BEGIN CERTIFICATE-----
MIIEmzCCA4OgAwIBAgIQK0QDMn/6EbWRPJQoYuL/cTANBgkqhkiG9w0BAQsFADBD
MQswCQYDVQQGEwJYWDEQMA4GA1UEChMHU29tZSBDQTEiMCAGA1UEAxMZRmFrZSBD
QSBmb3IgemxpbnQgdGVzdGluZzAeFw0yNjAyMDMxMDM4MjZaFw0yNzAyMDMxMDM4
MjZaMIGRMQswCQYDVQQGEwJYWDEfMB0GA1UECBMWU29tZSBTdGF0ZSBvciBQcm92
aW5jZTESMBAGA1UEBxMJU29tZXdoZXJlMRowGAYDVQQKExFTb21lIENvbXBhbnkg
THRkLjETMBEGA1UEBRMKMTIzNDU2Nzg5MDEcMBoGA1UEYRMTTlRSVVMrQ0EtMTIz
NDU2Nzg5MDCCASIwDQYJKoZIhvcNAQEBBQADggEPADCCAQoCggEBAMB+v78a8FLh
Pp2nRk44WhLJmJ99fMxlpQ6QlaXhl3Gsiw1Gam406tiwk9TSrEWoqoSgjIZ66ImC
m+woMeYw0C+qMEhpeuCbkToy3d7I22k9GHh9T9BSVqDshtCXeIeJW1QXh3m7EnHG
8stzqV6cbvKXz0lYImGT0Nx8u9sVJ2XaMQa5cP/ZahvFmA4Jff5UMxWOc5XSbayD
V9AuTwXy5QtyIfKHhtflODJ/fG71a/XWOPTHvv2zXzKuW6d69QU/xYq4NN/GBGib
kibc50CaiG1TQTv10EeyrBSnaqpEuVrUJKrkXwqmZ0GwW6M6dafrohxpfqgrZmEC
KFzlCNsG0QECAwEAAaOCATowggE2MA4GA1UdDwEB/wQEAwIFoDAdBgNVHSUEFjAU
BggrBgEFBQcDAgYIKwYBBQUHAwEwHwYDVR0jBBgwFoAU6Lb2dkvQO+VGpflU1H4H
s94NYD4wZAYIKwYBBQUHAQEEWDBWMCkGCCsGAQUFBzABhh1odHRwOi8vY2Euc29t
ZWNhLWluYy5jb20vb2NzcDApBggrBgEFBQcwAoYdaHR0cDovL2NhLnNvbWVjYS1p
bmMuY29tL3Jvb3QwFgYDVR0RBA8wDYILZXhhbXBsZS5vcmcwEwYDVR0gBAwwCjAI
BgZngQwBAgIwLQYDVR0fBCYwJDAioCCgHoYcaHR0cDovL2NhLnNvbWVjYS1pbmMu
Y29tL2NybDAiBggrBgEFBQcBAwQWMBQwCAYGBACORgEBMAgGBgQAjkYBATANBgkq
hkiG9w0BAQsFAAOCAQEAi+QbZ879BzU4Lwx7fySMUh2KTSBhXfCT64cFjCbf8poa
O6WtaCJJoVZK6fDu/W0Sr/6yHyFd9oaY+WB17MpflK5utlqGwIMskdxU15/l3MgT
kMLoNwGziSzToriSOskMLkhf+Xyw9JPnmDwogg+weK5QitdFqtYxRrhaRZfk7d9n
3lALsKX6/vPXvDzJPjrDlR59+/C5RkBAbXGId67CLdsblD6WCJH8cquHHILQnbpB
QUeH13R3vzs0zyECXEZ0Si24lYbTEiHPlyQaQuzGzCo1014XWI2MO0lK0wQfYvsn
ljpo28LUWoz/WR00WxuLMzk3fE6+c4R6mdYjLiPc+g==
-----END CERTIFICATE-----
