Certificate:
    Data:
        Version: 3 (0x2)
        Serial Number:
            1c:e6:49:3a:e4:14:34:ac:99:c9:1b:53:27:d5:d6:1b
        Signature Algorithm: sha256WithRSAEncryption
        Issuer: C=XX, O=Some CA, CN=Fake CA for zlint testing
        Validity
            Not Before: Jan 23 00:00:00 2026 GMT
            Not After : Jan 23 00:00:00 2027 GMT
        Subject: C=XX, ST=Some State or Province, L=Somewhere, O=Some Company Ltd., serialNumber=1234567890, organizationIdentifier=NTRUS+CA-1234567890
        Subject Public Key Info:
            Public Key Algorithm: rsaEncryption
                Public-Key: (2048 bit)
                Modulus:
                    00:d1:f0:c4:6f:df:a7:64:c5:aa:56:ec:78:88:79:
                    4f:ae:3f:99:0a:4a:11:a2:15:86:95:2e:b9:ee:16:
                    c3:36:df:06:1d:94:ad:70:de:78:31:7e:df:b0:d3:
                    01:1a:4c:47:a2:8b:9d:e2:4b:06:12:52:96:2e:f9:
                    b1:46:ca:b5:77:2d:08:27:09:b2:38:dd:5f:11:cc:
                    f1:7d:2c:84:5d:d0:ef:fb:ef:3f:ea:5b:4e:c0:85:
                    ff:c4:52:87:e7:89:8e:6b:a8:ef:fa:59:34:7c:d9:
                    cc:90:55:bd:cc:49:7a:d2:42:b7:89:2f:12:23:ef:
                    48:d3:4b:fd:1a:08:8e:6f:d2:be:15:1d:fe:45:53:
                    24:36:fc:93:ab:64:ce:88:99:26:9e:8a:67:49:79:
                    b4:67:c5:bb:28:bb:ee:76:22:26:0e:c4:f8:76:95:
                    46:e4:22:09:34:d2:d3:2f:04:22:f5:16:fc:5a:97:
                    22:c0:aa:b6:cf:e1:8f:cb:48:43:83:24:75:b6:5a:
                    5d:8a:e1:90:89:58:e9:b7:c0:ab:fe:aa:9a:a6:35:
                    e3:53:0b:fc:f8:8c:4b:79:42:1f:c1:ec:9c:46:dd:
                    f7:6a:7d:c1:f9:f6:e5:f2:68:c3:8e:33:6f:9b:c6:
                    ba:9c:5d:15:a8:b7:28:81:be:a3:c0:33:10:a4:38:
                    4e:11
                Exponent: 65537 (0x10001)
        X509v3 extensions:
            X509v3 Key Usage: critical
                Digital Signature, Key Encipherment
            X509v3 Extended Key Usage: 
                TLS Web Client Authentication, TLS Web Server Authentication
            X509v3 Authority Key Identifier: 
                E8:B6:F6:76:4B:D0:3B:E5:46:A5:F9:54:D4:7E:07:B3:DE:0D:60:3E
            Authority Information Access: 
                OCSP - URI:http://ca.someca-inc.com/ocsp
                CA Issuers - URI:http://ca.someca-inc.com/root
            X509v3 Subject Alternative Name: 
                DNS:example.org
            X509v3 Certificate Policies: 
                Policy: 2.23.140.1.2.2
            X509v3 CRL Distribution Points: 
                Full Name:
                  URI:http://ca.someca-inc.com/crl

            qcStatements: 
                0.0......F..0......F..
    Signature Algorithm: sha256WithRSAEncryption
    Signature Value:
        0f:f6:23:07:89:b8:ac:5d:14:5d:9d:a3:cf:a5:8f:cd:63:6b:
        2e:80:70:9d:7b:fb:8a:21:65:e7:18:fb:d9:dd:6b:55:2d:9e:
        9a:52:c1:97:34:9a:74:ed:2a:c6:55:28:0a:b6:9a:97:69:eb:
        25:dd:ae:69:82:0b:bb:10:ee:f7:2d:8a:98:b9:6f:50:93:37:
        07:c0:e3:93:91:fa:d3:59:24:23:ba:8a:eb:a0:9c:f1:c1:e7:
        c1:8f:15:80:96:00:df:63:96:fa:62:0d:13:73:b4:b9:77:f3:
        08:53:67:31:15:80:49:8b:f6:2f:c7:6b:b0:86:da:52:06:a5:
        7f:c8:5c:de:50:8d:f8:11:4b:59:53:61:eb:8c:16:3a:f4:43:
        93:8e:0a:e8:06:e2:8a:f2:7c:f3:3d:b5:b4:14:2c:82:54:09:
        ac:51:4b:81:dd:f7:11:0b:86:8f:88:59:2f:82:b6:00:2c:13:
        0d:72:f7:e6:56:17:e6:18:52:c7:5b:7e:5c:76:4c:de:b6:dd:
        3c:4f:54:e8:8b:34:e9:0a:34:b6:b9:7e:23:68:4a:00:21:71:
        a7:de:10:58:eb:69:38:7d:c0:44:05:73:1c:e3:fd:ae:c8:95:
        9f:ec:ed:fe:79:a2:f2:c4:80:d9:6a:72:c8:6d:5d:6e:69:d4:
        0e:07:85:ed
-----BEGIN CERTIFICATE-----
MIIEmzCCA4OgAwIBAgIQHOZJOuQUNKyZyRtTJ9XWGzANBgkqhkiG9w0BAQsFADBD
MQswCQYDVQQGEwJYWDEQMA4GA1UEChMHU29tZSBDQTEiMCAGA1UEAxMZRmFrZSBD
QSBmb3IgemxpbnQgdGVzdGluZzAeFw0yNjAxMjMwMDAwMDBaFw0yNzAxMjMwMDAw
MDBaMIGRMQswCQYDVQQGEwJYWDEfMB0GA1UECBMWU29tZSBTdGF0ZSBvciBQcm92
aW5jZTESMBAGA1UEBxMJU29tZXdoZXJlMRowGAYDVQQKExFTb21lIENvbXBhbnkg
THRkLjETMBEGA1UEBRMKMTIzNDU2Nzg5MDEcMBoGA1UEYRMTTlRSVVMrQ0EtMTIz
NDU2Nzg5MDCCASIwDQYJKoZIhvcNAQEBBQADggEPADCCAQoCggEBANHwxG/fp2TF
qlbseIh5T64/mQpKEaIVhpUuue4WwzbfBh2UrXDeeDF+37DTARpMR6KLneJLBhJS
li75sUbKtXctCCcJsjjdXxHM8X0shF3Q7/vvP+pbTsCF/8RSh+eJjmuo7/pZNHzZ
zJBVvcxJetJCt4kvEiPvSNNL/RoIjm/SvhUd/kVTJDb8k6tkzoiZJp6KZ0l5tGfF
uyi77nYiJg7E+HaVRuQiCTTS0y8EIvUW/FqXIsCqts/hj8tIQ4MkdbZaXYrhkIlY
6bfAq/6qmqY141ML/PiMS3lCH8HsnEbd92p9wfn25fJow44zb5vGupxdFai3KIG+
o8AzEKQ4ThECAwEAAaOCATowggE2MA4GA1UdDwEB/wQEAwIFoDAdBgNVHSUEFjAU
BggrBgEFBQcDAgYIKwYBBQUHAwEwHwYDVR0jBBgwFoAU6Lb2dkvQO+VGpflU1H4H
s94NYD4wZAYIKwYBBQUHAQEEWDBWMCkGCCsGAQUFBzABhh1odHRwOi8vY2Euc29t
ZWNhLWluYy5jb20vb2NzcDApBggrBgEFBQcwAoYdaHR0cDovL2NhLnNvbWVjYS1p
bmMuY29tL3Jvb3QwFgYDVR0RBA8wDYILZXhhbXBsZS5vcmcwEwYDVR0gBAwwCjAI
BgZngQwBAgIwLQYDVR0fBCYwJDAioCCgHoYcaHR0cDovL2NhLnNvbWVjYS1pbmMu
Y29tL2NybDAiBggrBgEFBQcBAwQWMBQwCAYGBACORgEBMAgGBgQAjkYBATANBgkq
hkiG9w0BAQsFAAOCAQEAD/YjB4m4rF0UXZ2jz6WPzWNrLoBwnXv7iiFl5xj72d1r
VS2emlLBlzSadO0qxlUoCraal2nrJd2uaYILuxDu9y2KmLlvUJM3B8Djk5H601kk
I7qK66Cc8cHnwY8VgJYA32OW+mINE3O0uXfzCFNnMRWASYv2L8drsIbaUgalf8hc
3lCN+BFLWVNh64wWOvRDk44K6AbiivJ88z21tBQsglQJrFFLgd33EQuGj4hZL4K2
ACwTDXL35lYX5hhSx1t+XHZM3rbdPE9U6Is06Qo0trl+I2hKACFxp94QWOtpOH3A
RAVzHOP9rsiVn+zt/nmi8sSA2WpyyG1dbmnUDgeF7Q==
-----END CERTIFICATE-----
